target datalayout = "e-m:e-p270:32:32-p271:32:32-p272:64:64-i64:64-i128:128-f80:128-n8:16:32:64-S128"
target triple = "x86_64-pc-linux-gnu"

%struct.printTableFooter = type { ptr, ptr }
%struct.printTableOpt = type { i32, i16, i32, i32, i16, i16, i32, i8, i8, i8, i8, i64, ptr, %struct.separator, %struct.separator, [2 x i8], i8, ptr, i32, i32, i32, i32, i32, i32 }
%struct.separator = type { ptr, i8 }
%struct.printTableContent = type { ptr, ptr, i32, i32, ptr, ptr, ptr, ptr, i64, ptr, ptr, ptr, ptr, ptr }

@cancel_pressed = dso_local global i32 0, align 4
@.str.86 = private unnamed_addr constant [16 x i8] c"\\begin{center}\0A\00", align 1
@.str.87 = private unnamed_addr constant [16 x i8] c"\0A\\end{center}\0A\0A\00", align 1
@.str.88 = private unnamed_addr constant [17 x i8] c"\\begin{tabular}{\00", align 1
@.str.89 = private unnamed_addr constant [3 x i8] c"cl\00", align 1
@.str.90 = private unnamed_addr constant [4 x i8] c"c|l\00", align 1
@.str.91 = private unnamed_addr constant [6 x i8] c"|c|l|\00", align 1
@.str.92 = private unnamed_addr constant [3 x i8] c"}\0A\00", align 1
@.str.93 = private unnamed_addr constant [8 x i8] c"\\hline\0A\00", align 1
@.str.94 = private unnamed_addr constant [46 x i8] c"\\multicolumn{2}{|c|}{\\textit{Record %lu}} \\\\\0A\00", align 1
@.str.95 = private unnamed_addr constant [44 x i8] c"\\multicolumn{2}{c}{\\textit{Record %lu}} \\\\\0A\00", align 1
@.str.96 = private unnamed_addr constant [4 x i8] c" & \00", align 1
@.str.97 = private unnamed_addr constant [5 x i8] c" \\\\\0A\00", align 1
@.str.98 = private unnamed_addr constant [26 x i8] c"\\end{tabular}\0A\0A\\noindent \00", align 1

; Function Attrs: nounwind uwtable
define internal void @print_latex_vertical(ptr noundef %0, ptr noundef %1) #0 {
  %3 = alloca ptr, align 8
  %4 = alloca ptr, align 8
  %5 = alloca i8, align 1
  %6 = alloca i16, align 2
  %7 = alloca i64, align 8
  %8 = alloca i32, align 4
  %9 = alloca ptr, align 8
  %10 = alloca i32, align 4
  %11 = alloca ptr, align 8
  store ptr %0, ptr %3, align 8
  store ptr %1, ptr %4, align 8
  call void @llvm.lifetime.start.p0(i64 1, ptr %5) #8
  %12 = load ptr, ptr %3, align 8
  %13 = getelementptr inbounds nuw %struct.printTableContent, ptr %12, i32 0, i32 0
  %14 = load ptr, ptr %13, align 8
  %15 = getelementptr inbounds nuw %struct.printTableOpt, ptr %14, i32 0, i32 7
  %16 = load i8, ptr %15, align 8, !range !4, !noundef !5
  %17 = trunc i8 %16 to i1
  %18 = zext i1 %17 to i8
  store i8 %18, ptr %5, align 1
  call void @llvm.lifetime.start.p0(i64 2, ptr %6) #8
  %19 = load ptr, ptr %3, align 8
  %20 = getelementptr inbounds nuw %struct.printTableContent, ptr %19, i32 0, i32 0
  %21 = load ptr, ptr %20, align 8
  %22 = getelementptr inbounds nuw %struct.printTableOpt, ptr %21, i32 0, i32 4
  %23 = load i16, ptr %22, align 8
  store i16 %23, ptr %6, align 2
  call void @llvm.lifetime.start.p0(i64 8, ptr %7) #8
  %24 = load ptr, ptr %3, align 8
  %25 = getelementptr inbounds nuw %struct.printTableContent, ptr %24, i32 0, i32 0
  %26 = load ptr, ptr %25, align 8
  %27 = getelementptr inbounds nuw %struct.printTableOpt, ptr %26, i32 0, i32 11
  %28 = load i64, ptr %27, align 8
  %29 = add i64 %28, 1
  store i64 %29, ptr %7, align 8
  call void @llvm.lifetime.start.p0(i64 4, ptr %8) #8
  call void @llvm.lifetime.start.p0(i64 8, ptr %9) #8
  %30 = load volatile i32, ptr @cancel_pressed, align 4
  %31 = icmp ne i32 %30, 0
  br i1 %31, label %32, label %33

32:                                               ; preds = %2
  store i32 1, ptr %10, align 4
  br label %212

33:                                               ; preds = %2
  %34 = load i16, ptr %6, align 2
  %35 = zext i16 %34 to i32
  %36 = icmp sgt i32 %35, 2
  br i1 %36, label %37, label %38

37:                                               ; preds = %33
  store i16 2, ptr %6, align 2
  br label %38

38:                                               ; preds = %37, %33
  %39 = load ptr, ptr %3, align 8
  %40 = getelementptr inbounds nuw %struct.printTableContent, ptr %39, i32 0, i32 0
  %41 = load ptr, ptr %40, align 8
  %42 = getelementptr inbounds nuw %struct.printTableOpt, ptr %41, i32 0, i32 8
  %43 = load i8, ptr %42, align 1, !range !4, !noundef !5
  %44 = trunc i8 %43 to i1
  br i1 %44, label %45, label %90

45:                                               ; preds = %38
  %46 = load i8, ptr %5, align 1, !range !4, !noundef !5
  %47 = trunc i8 %46 to i1
  br i1 %47, label %62, label %48

48:                                               ; preds = %45
  %49 = load ptr, ptr %3, align 8
  %50 = getelementptr inbounds nuw %struct.printTableContent, ptr %49, i32 0, i32 1
  %51 = load ptr, ptr %50, align 8
  %52 = icmp ne ptr %51, null
  br i1 %52, label %53, label %62

53:                                               ; preds = %48
  %54 = load ptr, ptr %4, align 8
  %55 = call i32 @fputs(ptr noundef @.str.86, ptr noundef %54)
  %56 = load ptr, ptr %3, align 8
  %57 = getelementptr inbounds nuw %struct.printTableContent, ptr %56, i32 0, i32 1
  %58 = load ptr, ptr %57, align 8
  %59 = load ptr, ptr %4, align 8
  call void @latex_escaped_print(ptr noundef %58, ptr noundef %59)
  %60 = load ptr, ptr %4, align 8
  %61 = call i32 @fputs(ptr noundef @.str.87, ptr noundef %60)
  br label %62

62:                                               ; preds = %53, %48, %45
  %63 = load ptr, ptr %4, align 8
  %64 = call i32 @fputs(ptr noundef @.str.88, ptr noundef %63)
  %65 = load i16, ptr %6, align 2
  %66 = zext i16 %65 to i32
  %67 = icmp eq i32 %66, 0
  br i1 %67, label %68, label %71

68:                                               ; preds = %62
  %69 = load ptr, ptr %4, align 8
  %70 = call i32 @fputs(ptr noundef @.str.89, ptr noundef %69)
  br label %87

71:                                               ; preds = %62
  %72 = load i16, ptr %6, align 2
  %73 = zext i16 %72 to i32
  %74 = icmp eq i32 %73, 1
  br i1 %74, label %75, label %78

75:                                               ; preds = %71
  %76 = load ptr, ptr %4, align 8
  %77 = call i32 @fputs(ptr noundef @.str.90, ptr noundef %76)
  br label %86

78:                                               ; preds = %71
  %79 = load i16, ptr %6, align 2
  %80 = zext i16 %79 to i32
  %81 = icmp eq i32 %80, 2
  br i1 %81, label %82, label %85

82:                                               ; preds = %78
  %83 = load ptr, ptr %4, align 8
  %84 = call i32 @fputs(ptr noundef @.str.91, ptr noundef %83)
  br label %85

85:                                               ; preds = %82, %78
  br label %86

86:                                               ; preds = %85, %75
  br label %87

87:                                               ; preds = %86, %68
  %88 = load ptr, ptr %4, align 8
  %89 = call i32 @fputs(ptr noundef @.str.92, ptr noundef %88)
  br label %90

90:                                               ; preds = %87, %38
  store i32 0, ptr %8, align 4
  %91 = load ptr, ptr %3, align 8
  %92 = getelementptr inbounds nuw %struct.printTableContent, ptr %91, i32 0, i32 6
  %93 = load ptr, ptr %92, align 8
  store ptr %93, ptr %9, align 8
  br label %94

94:                                               ; preds = %157, %90
  %95 = load ptr, ptr %9, align 8
  %96 = load ptr, ptr %95, align 8
  %97 = icmp ne ptr %96, null
  br i1 %97, label %98, label %162

98:                                               ; preds = %94
  %99 = load i32, ptr %8, align 4
  %100 = load ptr, ptr %3, align 8
  %101 = getelementptr inbounds nuw %struct.printTableContent, ptr %100, i32 0, i32 2
  %102 = load i32, ptr %101, align 8
  %103 = urem i32 %99, %102
  %104 = icmp eq i32 %103, 0
  br i1 %104, label %105, label %137

105:                                              ; preds = %98
  %106 = load volatile i32, ptr @cancel_pressed, align 4
  %107 = icmp ne i32 %106, 0
  br i1 %107, label %108, label %109

108:                                              ; preds = %105
  br label %162

109:                                              ; preds = %105
  %110 = load i8, ptr %5, align 1, !range !4, !noundef !5
  %111 = trunc i8 %110 to i1
  br i1 %111, label %129, label %112

112:                                              ; preds = %109
  %113 = load i16, ptr %6, align 2
  %114 = zext i16 %113 to i32
  %115 = icmp eq i32 %114, 2
  br i1 %115, label %116, label %123

116:                                              ; preds = %112
  %117 = load ptr, ptr %4, align 8
  %118 = call i32 @fputs(ptr noundef @.str.93, ptr noundef %117)
  %119 = load ptr, ptr %4, align 8
  %120 = load i64, ptr %7, align 8
  %121 = add i64 %120, 1
  store i64 %121, ptr %7, align 8
  %122 = call i32 (ptr, ptr, ...) @pg_fprintf(ptr noundef %119, ptr noundef @.str.94, i64 noundef %120)
  br label %128

123:                                              ; preds = %112
  %124 = load ptr, ptr %4, align 8
  %125 = load i64, ptr %7, align 8
  %126 = add i64 %125, 1
  store i64 %126, ptr %7, align 8
  %127 = call i32 (ptr, ptr, ...) @pg_fprintf(ptr noundef %124, ptr noundef @.str.95, i64 noundef %125)
  br label %128

128:                                              ; preds = %123, %116
  br label %129

129:                                              ; preds = %128, %109
  %130 = load i16, ptr %6, align 2
  %131 = zext i16 %130 to i32
  %132 = icmp sge i32 %131, 1
  br i1 %132, label %133, label %136

133:                                              ; preds = %129
  %134 = load ptr, ptr %4, align 8
  %135 = call i32 @fputs(ptr noundef @.str.93, ptr noundef %134)
  br label %136

136:                                              ; preds = %133, %129
  br label %137

137:                                              ; preds = %136, %98
  %138 = load ptr, ptr %3, align 8
  %139 = getelementptr inbounds nuw %struct.printTableContent, ptr %138, i32 0, i32 4
  %140 = load ptr, ptr %139, align 8
  %141 = load i32, ptr %8, align 4
  %142 = load ptr, ptr %3, align 8
  %143 = getelementptr inbounds nuw %struct.printTableContent, ptr %142, i32 0, i32 2
  %144 = load i32, ptr %143, align 8
  %145 = urem i32 %141, %144
  %146 = zext i32 %145 to i64
  %147 = getelementptr inbounds nuw ptr, ptr %140, i64 %146
  %148 = load ptr, ptr %147, align 8
  %149 = load ptr, ptr %4, align 8
  call void @latex_escaped_print(ptr noundef %148, ptr noundef %149)
  %150 = load ptr, ptr %4, align 8
  %151 = call i32 @fputs(ptr noundef @.str.96, ptr noundef %150)
  %152 = load ptr, ptr %9, align 8
  %153 = load ptr, ptr %152, align 8
  %154 = load ptr, ptr %4, align 8
  call void @latex_escaped_print(ptr noundef %153, ptr noundef %154)
  %155 = load ptr, ptr %4, align 8
  %156 = call i32 @fputs(ptr noundef @.str.97, ptr noundef %155)
  br label %157

157:                                              ; preds = %137
  %158 = load i32, ptr %8, align 4
  %159 = add i32 %158, 1
  store i32 %159, ptr %8, align 4
  %160 = load ptr, ptr %9, align 8
  %161 = getelementptr inbounds nuw ptr, ptr %160, i32 1
  store ptr %161, ptr %9, align 8
  br label %94, !llvm.loop !54

162:                                              ; preds = %108, %94
  %163 = load ptr, ptr %3, align 8
  %164 = getelementptr inbounds nuw %struct.printTableContent, ptr %163, i32 0, i32 0
  %165 = load ptr, ptr %164, align 8
  %166 = getelementptr inbounds nuw %struct.printTableOpt, ptr %165, i32 0, i32 9
  %167 = load i8, ptr %166, align 2, !range !4, !noundef !5
  %168 = trunc i8 %167 to i1
  br i1 %168, label %169, label %211

169:                                              ; preds = %162
  %170 = load i16, ptr %6, align 2
  %171 = zext i16 %170 to i32
  %172 = icmp eq i32 %171, 2
  br i1 %172, label %173, label %176

173:                                              ; preds = %169
  %174 = load ptr, ptr %4, align 8
  %175 = call i32 @fputs(ptr noundef @.str.93, ptr noundef %174)
  br label %176

176:                                              ; preds = %173, %169
  %177 = load ptr, ptr %4, align 8
  %178 = call i32 @fputs(ptr noundef @.str.98, ptr noundef %177)
  %179 = load ptr, ptr %3, align 8
  %180 = getelementptr inbounds nuw %struct.printTableContent, ptr %179, i32 0, i32 10
  %181 = load ptr, ptr %180, align 8
  %182 = icmp ne ptr %181, null
  br i1 %182, label %183, label %208

183:                                              ; preds = %176
  %184 = load i8, ptr %5, align 1, !range !4, !noundef !5
  %185 = trunc i8 %184 to i1
  br i1 %185, label %208, label %186

186:                                              ; preds = %183
  %187 = load volatile i32, ptr @cancel_pressed, align 4
  %188 = icmp ne i32 %187, 0
  br i1 %188, label %208, label %189

189:                                              ; preds = %186
  call void @llvm.lifetime.start.p0(i64 8, ptr %11) #8
  %190 = load ptr, ptr %3, align 8
  %191 = getelementptr inbounds nuw %struct.printTableContent, ptr %190, i32 0, i32 10
  %192 = load ptr, ptr %191, align 8
  store ptr %192, ptr %11, align 8
  br label %193

193:                                              ; preds = %203, %189
  %194 = load ptr, ptr %11, align 8
  %195 = icmp ne ptr %194, null
  br i1 %195, label %196, label %207

196:                                              ; preds = %193
  %197 = load ptr, ptr %11, align 8
  %198 = getelementptr inbounds nuw %struct.printTableFooter, ptr %197, i32 0, i32 0
  %199 = load ptr, ptr %198, align 8
  %200 = load ptr, ptr %4, align 8
  call void @latex_escaped_print(ptr noundef %199, ptr noundef %200)
  %201 = load ptr, ptr %4, align 8
  %202 = call i32 @fputs(ptr noundef @.str.97, ptr noundef %201)
  br label %203

203:                                              ; preds = %196
  %204 = load ptr, ptr %11, align 8
  %205 = getelementptr inbounds nuw %struct.printTableFooter, ptr %204, i32 0, i32 1
  %206 = load ptr, ptr %205, align 8
  store ptr %206, ptr %11, align 8
  br label %193, !llvm.loop !55

207:                                              ; preds = %193
  call void @llvm.lifetime.end.p0(i64 8, ptr %11) #8
  br label %208

208:                                              ; preds = %207, %186, %183, %176
  %209 = load ptr, ptr %4, align 8
  %210 = call i32 @fputc(i32 noundef 10, ptr noundef %209)
  br label %211

211:                                              ; preds = %208, %162
  store i32 0, ptr %10, align 4
  br label %212

212:                                              ; preds = %211, %32
  call void @llvm.lifetime.end.p0(i64 8, ptr %9) #8
  call void @llvm.lifetime.end.p0(i64 4, ptr %8) #8
  call void @llvm.lifetime.end.p0(i64 8, ptr %7) #8
  call void @llvm.lifetime.end.p0(i64 2, ptr %6) #8
  call void @llvm.lifetime.end.p0(i64 1, ptr %5) #8
  %213 = load i32, ptr %10, align 4
  switch i32 %213, label %215 [
    i32 0, label %214
    i32 1, label %214
  ]

214:                                              ; preds = %212, %212
  ret void

215:                                              ; preds = %212
  unreachable
}