; Function Attrs: nounwind uwtable
define internal fastcc void @print_latex_vertical(ptr noundef readonly captures(none) %0, ptr noundef %1) unnamed_addr #3 {
  %3 = load ptr, ptr %0, align 8
  %4 = getelementptr inbounds nuw i8, ptr %3, i64 24
  %5 = load i8, ptr %4, align 8, !range !6, !noundef !7
  %6 = trunc nuw i8 %5 to i1
  %7 = getelementptr inbounds nuw i8, ptr %3, i64 16
  %8 = load i16, ptr %7, align 8
  %.fr = freeze i16 %8
  %9 = getelementptr inbounds nuw i8, ptr %3, i64 32
  %10 = load i64, ptr %9, align 8
  %11 = add i64 %10, 1
  %12 = load volatile i32, ptr @cancel_pressed, align 4
  %.not = icmp eq i32 %12, 0
  br i1 %.not, label %13, label %122

13:                                               ; preds = %2
  %14 = getelementptr inbounds nuw i8, ptr %3, i64 25
  %15 = load i8, ptr %14, align 1, !range !6, !noundef !7
  %16 = trunc nuw i8 %15 to i1
  br i1 %16, label %17, label %35

17:                                               ; preds = %13
  br i1 %6, label %25, label %18

18:                                               ; preds = %17
  %19 = getelementptr inbounds nuw i8, ptr %0, i64 8
  %20 = load ptr, ptr %19, align 8
  %.not58 = icmp eq ptr %20, null
  br i1 %.not58, label %25, label %21

21:                                               ; preds = %18
  %22 = tail call i64 @fwrite(ptr nonnull @.str.86, i64 15, i64 1, ptr %1)
  %23 = load ptr, ptr %19, align 8
  tail call fastcc void @latex_escaped_print(ptr noundef %23, ptr noundef %1)
  %24 = tail call i64 @fwrite(ptr nonnull @.str.87, i64 15, i64 1, ptr %1)
  br label %25

25:                                               ; preds = %21, %18, %17
  %26 = tail call i64 @fwrite(ptr nonnull @.str.88, i64 16, i64 1, ptr %1)
  switch i16 %.fr, label %31 [
    i16 0, label %27
    i16 1, label %29
  ]

27:                                               ; preds = %25
  %28 = tail call i64 @fwrite(ptr nonnull @.str.89, i64 2, i64 1, ptr %1)
  br label %33

29:                                               ; preds = %25
  %30 = tail call i64 @fwrite(ptr nonnull @.str.90, i64 3, i64 1, ptr %1)
  br label %33

31:                                               ; preds = %25
  %32 = tail call i64 @fwrite(ptr nonnull @.str.91, i64 5, i64 1, ptr %1)
  br label %33

33:                                               ; preds = %29, %31, %27
  %34 = tail call i64 @fwrite(ptr nonnull @.str.92, i64 2, i64 1, ptr %1)
  br label %35

35:                                               ; preds = %33, %13
  %36 = getelementptr inbounds nuw i8, ptr %0, i64 40
  %37 = load ptr, ptr %36, align 8
  %38 = load ptr, ptr %37, align 8
  %.not5968 = icmp eq ptr %38, null
  br i1 %.not5968, label %._crit_edge, label %.lr.ph

.lr.ph:                                           ; preds = %35
  %39 = getelementptr inbounds nuw i8, ptr %0, i64 16
  %.not61 = icmp eq i16 %.fr, 0
  %40 = getelementptr inbounds nuw i8, ptr %0, i64 24
  br i1 %6, label %.lr.ph.split.us, label %.lr.ph.split

.lr.ph.split.us:                                  ; preds = %.lr.ph, %49
  %.05471.us = phi ptr [ %58, %49 ], [ %37, %.lr.ph ]
  %.05570.us = phi i32 [ %57, %49 ], [ 0, %.lr.ph ]
  %41 = load i32, ptr %39, align 8
  %42 = urem i32 %.05570.us, %41
  %43 = icmp eq i32 %42, 0
  br i1 %43, label %44, label %49

44:                                               ; preds = %.lr.ph.split.us
  %45 = load volatile i32, ptr @cancel_pressed, align 4
  %.not60.us = icmp eq i32 %45, 0
  br i1 %.not60.us, label %46, label %._crit_edge

46:                                               ; preds = %44
  br i1 %.not61, label %49, label %47

47:                                               ; preds = %46
  %48 = tail call i64 @fwrite(ptr nonnull @.str.93, i64 7, i64 1, ptr %1)
  %.pre87 = load i32, ptr %39, align 8
  %.pre88 = urem i32 %.05570.us, %.pre87
  br label %49

49:                                               ; preds = %47, %46, %.lr.ph.split.us
  %.pre-phi = phi i32 [ %.pre88, %47 ], [ 0, %46 ], [ %42, %.lr.ph.split.us ]
  %50 = load ptr, ptr %40, align 8
  %51 = zext i32 %.pre-phi to i64
  %52 = getelementptr inbounds nuw ptr, ptr %50, i64 %51
  %53 = load ptr, ptr %52, align 8
  tail call fastcc void @latex_escaped_print(ptr noundef %53, ptr noundef %1)
  %54 = tail call i64 @fwrite(ptr nonnull @.str.96, i64 3, i64 1, ptr %1)
  %55 = load ptr, ptr %.05471.us, align 8
  tail call fastcc void @latex_escaped_print(ptr noundef %55, ptr noundef %1)
  %56 = tail call i64 @fwrite(ptr nonnull @.str.97, i64 4, i64 1, ptr %1)
  %57 = add i32 %.05570.us, 1
  %58 = getelementptr inbounds nuw i8, ptr %.05471.us, i64 8
  %59 = load ptr, ptr %58, align 8
  %.not59.us = icmp eq ptr %59, null
  br i1 %.not59.us, label %._crit_edge, label %.lr.ph.split.us, !llvm.loop !54

.lr.ph.split:                                     ; preds = %.lr.ph
  %60 = icmp ugt i16 %.fr, 1
  br i1 %60, label %.lr.ph.split.split.us, label %.lr.ph.split.split

.lr.ph.split.split.us:                            ; preds = %.lr.ph.split, %70
  %.05471.us73 = phi ptr [ %79, %70 ], [ %37, %.lr.ph.split ]
  %.05570.us74 = phi i32 [ %78, %70 ], [ 0, %.lr.ph.split ]
  %.05669.us75 = phi i64 [ %.1.us78, %70 ], [ %11, %.lr.ph.split ]
  %61 = load i32, ptr %39, align 8
  %62 = urem i32 %.05570.us74, %61
  %63 = icmp eq i32 %62, 0
  br i1 %63, label %64, label %70

64:                                               ; preds = %.lr.ph.split.split.us
  %65 = load volatile i32, ptr @cancel_pressed, align 4
  %.not60.us76 = icmp eq i32 %65, 0
  br i1 %.not60.us76, label %.thread.us, label %._crit_edge

.thread.us:                                       ; preds = %64
  %66 = tail call i64 @fwrite(ptr nonnull @.str.93, i64 7, i64 1, ptr %1)
  %67 = add i64 %.05669.us75, 1
  %68 = tail call i32 (ptr, ptr, ...) @pg_fprintf(ptr noundef %1, ptr noundef nonnull @.str.94, i64 noundef %.05669.us75) #19
  %69 = tail call i64 @fwrite(ptr nonnull @.str.93, i64 7, i64 1, ptr %1)
  %.pre = load i32, ptr %39, align 8
  %.pre89 = urem i32 %.05570.us74, %.pre
  br label %70

70:                                               ; preds = %.thread.us, %.lr.ph.split.split.us
  %.pre-phi90 = phi i32 [ %.pre89, %.thread.us ], [ %62, %.lr.ph.split.split.us ]
  %.1.us78 = phi i64 [ %67, %.thread.us ], [ %.05669.us75, %.lr.ph.split.split.us ]
  %71 = load ptr, ptr %40, align 8
  %72 = zext i32 %.pre-phi90 to i64
  %73 = getelementptr inbounds nuw ptr, ptr %71, i64 %72
  %74 = load ptr, ptr %73, align 8
  tail call fastcc void @latex_escaped_print(ptr noundef %74, ptr noundef %1)
  %75 = tail call i64 @fwrite(ptr nonnull @.str.96, i64 3, i64 1, ptr %1)
  %76 = load ptr, ptr %.05471.us73, align 8
  tail call fastcc void @latex_escaped_print(ptr noundef %76, ptr noundef %1)
  %77 = tail call i64 @fwrite(ptr nonnull @.str.97, i64 4, i64 1, ptr %1)
  %78 = add i32 %.05570.us74, 1
  %79 = getelementptr inbounds nuw i8, ptr %.05471.us73, i64 8
  %80 = load ptr, ptr %79, align 8
  %.not59.us79 = icmp eq ptr %80, null
  br i1 %.not59.us79, label %._crit_edge, label %.lr.ph.split.split.us, !llvm.loop !54

.lr.ph.split.split:                               ; preds = %.lr.ph.split, %91
  %.05471 = phi ptr [ %102, %91 ], [ %37, %.lr.ph.split ]
  %.05570 = phi i32 [ %101, %91 ], [ 0, %.lr.ph.split ]
  %.05669 = phi i64 [ %.1, %91 ], [ %11, %.lr.ph.split ]
  %81 = load i32, ptr %39, align 8
  %82 = urem i32 %.05570, %81
  %83 = icmp eq i32 %82, 0
  br i1 %83, label %84, label %91

84:                                               ; preds = %.lr.ph.split.split
  %85 = load volatile i32, ptr @cancel_pressed, align 4
  %.not60 = icmp eq i32 %85, 0
  br i1 %.not60, label %86, label %._crit_edge

86:                                               ; preds = %84
  %87 = add i64 %.05669, 1
  %88 = tail call i32 (ptr, ptr, ...) @pg_fprintf(ptr noundef %1, ptr noundef nonnull @.str.95, i64 noundef %.05669) #19
  br i1 %.not61, label %91, label %89

89:                                               ; preds = %86
  %90 = tail call i64 @fwrite(ptr nonnull @.str.93, i64 7, i64 1, ptr %1)
  br label %91

91:                                               ; preds = %86, %89, %.lr.ph.split.split
  %.1 = phi i64 [ %87, %89 ], [ %87, %86 ], [ %.05669, %.lr.ph.split.split ]
  %92 = load ptr, ptr %40, align 8
  %93 = load i32, ptr %39, align 8
  %94 = urem i32 %.05570, %93
  %95 = zext i32 %94 to i64
  %96 = getelementptr inbounds nuw ptr, ptr %92, i64 %95
  %97 = load ptr, ptr %96, align 8
  tail call fastcc void @latex_escaped_print(ptr noundef %97, ptr noundef %1)
  %98 = tail call i64 @fwrite(ptr nonnull @.str.96, i64 3, i64 1, ptr %1)
  %99 = load ptr, ptr %.05471, align 8
  tail call fastcc void @latex_escaped_print(ptr noundef %99, ptr noundef %1)
  %100 = tail call i64 @fwrite(ptr nonnull @.str.97, i64 4, i64 1, ptr %1)
  %101 = add i32 %.05570, 1
  %102 = getelementptr inbounds nuw i8, ptr %.05471, i64 8
  %103 = load ptr, ptr %102, align 8
  %.not59 = icmp eq ptr %103, null
  br i1 %.not59, label %._crit_edge, label %.lr.ph.split.split, !llvm.loop !54

._crit_edge:                                      ; preds = %91, %84, %70, %64, %49, %44, %35
  %104 = load ptr, ptr %0, align 8
  %105 = getelementptr inbounds nuw i8, ptr %104, i64 26
  %106 = load i8, ptr %105, align 2, !range !6, !noundef !7
  %107 = trunc nuw i8 %106 to i1
  br i1 %107, label %108, label %122

108:                                              ; preds = %._crit_edge
  %109 = icmp ugt i16 %.fr, 1
  br i1 %109, label %110, label %112

110:                                              ; preds = %108
  %111 = tail call i64 @fwrite(ptr nonnull @.str.93, i64 7, i64 1, ptr %1)
  br label %112

112:                                              ; preds = %110, %108
  %113 = tail call i64 @fwrite(ptr nonnull @.str.98, i64 25, i64 1, ptr %1)
  %114 = getelementptr inbounds nuw i8, ptr %0, i64 72
  %115 = load ptr, ptr %114, align 8
  %.not62 = icmp eq ptr %115, null
  %brmerge = select i1 %.not62, i1 true, i1 %6
  br i1 %brmerge, label %.loopexit, label %116

116:                                              ; preds = %112
  %117 = load volatile i32, ptr @cancel_pressed, align 4
  %.not63 = icmp eq i32 %117, 0
  br i1 %.not63, label %.lr.ph84, label %.loopexit

.lr.ph84:                                         ; preds = %116, %.lr.ph84
  %.083 = phi ptr [ %.0, %.lr.ph84 ], [ %115, %116 ]
  %118 = load ptr, ptr %.083, align 8
  tail call fastcc void @latex_escaped_print(ptr noundef %118, ptr noundef %1)
  %119 = tail call i64 @fwrite(ptr nonnull @.str.97, i64 4, i64 1, ptr %1)
  %120 = getelementptr inbounds nuw i8, ptr %.083, i64 8
  %.0 = load ptr, ptr %120, align 8
  %.not64 = icmp eq ptr %.0, null
  br i1 %.not64, label %.loopexit, label %.lr.ph84, !llvm.loop !55

.loopexit:                                        ; preds = %.lr.ph84, %112, %116
  %121 = tail call i32 @fputc(i32 noundef 10, ptr noundef %1)
  br label %122

122:                                              ; preds = %._crit_edge, %.loopexit, %2
  ret void
}